target datalayout = "e-m:e-p270:32:32-p271:32:32-p272:64:64-i64:64-i128:128-f80:128-n8:16:32:64-S128"
target triple = "x86_64-pc-linux-gnu"

%struct.__va_list_tag = type { i32, i32, ptr, ptr }

@.str.166 = private unnamed_addr constant [7 x i8] c"%s%s%s\00", align 1

; Function Attrs: nounwind uwtable
define internal void @vprint_message(ptr noundef %0, ptr noundef %1, ptr noundef %2, ptr noundef %3, ptr noundef %4) #0 {
  %6 = alloca ptr, align 8
  %7 = alloca ptr, align 8
  %8 = alloca ptr, align 8
  %9 = alloca ptr, align 8
  %10 = alloca ptr, align 8
  %11 = alloca [8704 x i8], align 16
  %12 = alloca i32, align 4
  %13 = alloca [8704 x i8], align 16
  store ptr %0, ptr %6, align 8
  store ptr %1, ptr %7, align 8
  store ptr %2, ptr %8, align 8
  store ptr %3, ptr %9, align 8
  store ptr %4, ptr %10, align 8
  %14 = getelementptr inbounds [8704 x i8], ptr %11, i64 0, i64 0
  %15 = load ptr, ptr %9, align 8
  %16 = load ptr, ptr %10, align 8
  %17 = call i32 @vsnprintf(ptr noundef %14, i64 noundef 8704, ptr noundef %15, ptr noundef %16) #6
  %18 = getelementptr inbounds [8704 x i8], ptr %11, i64 0, i64 8703
  store i8 0, ptr %18, align 1
  %19 = getelementptr inbounds [8704 x i8], ptr %11, i64 0, i64 0
  %20 = call i64 @strlen(ptr noundef %19) #7
  %21 = trunc i64 %20 to i32
  store i32 %21, ptr %12, align 4
  %22 = getelementptr inbounds [8704 x i8], ptr %11, i64 0, i64 0
  %23 = load i32, ptr %12, align 4
  %24 = getelementptr inbounds [8704 x i8], ptr %13, i64 0, i64 0
  %25 = call i32 @utf8ToPlatform(ptr noundef %22, i32 noundef %23, ptr noundef %24, i32 noundef 8704)
  %26 = load ptr, ptr %6, align 8
  %27 = load ptr, ptr %7, align 8
  %28 = getelementptr inbounds [8704 x i8], ptr %13, i64 0, i64 0
  %29 = load ptr, ptr %8, align 8
  %30 = call i32 (ptr, ptr, ...) @fprintf(ptr noundef %26, ptr noundef @.str.166, ptr noundef %27, ptr noundef %28, ptr noundef %29) #6
  ret void
}

; Function Attrs: nounwind uwtable
define hidden void @print_message(ptr noundef %0, ptr noundef %1, ptr noundef %2, ptr noundef %3, ...) #0 {
  %5 = alloca ptr, align 8
  %6 = alloca ptr, align 8
  %7 = alloca ptr, align 8
  %8 = alloca ptr, align 8
  %9 = alloca [1 x %struct.__va_list_tag], align 16
  store ptr %0, ptr %5, align 8
  store ptr %1, ptr %6, align 8
  store ptr %2, ptr %7, align 8
  store ptr %3, ptr %8, align 8
  %10 = getelementptr inbounds [1 x %struct.__va_list_tag], ptr %9, i64 0, i64 0
  call void @llvm.va_start.p0(ptr %10)
  %11 = load ptr, ptr %5, align 8
  %12 = load ptr, ptr %6, align 8
  %13 = load ptr, ptr %7, align 8
  %14 = load ptr, ptr %8, align 8
  %15 = getelementptr inbounds [1 x %struct.__va_list_tag], ptr %9, i64 0, i64 0
  call void @vprint_message(ptr noundef %11, ptr noundef %12, ptr noundef %13, ptr noundef %14, ptr noundef %15)
  %16 = getelementptr inbounds [1 x %struct.__va_list_tag], ptr %9, i64 0, i64 0
  call void @llvm.va_end.p0(ptr %16)
  ret void
}