; Function Attrs: nounwind uwtable
define hidden void @print_message(ptr nocapture noundef %0, ptr noundef %1, ptr noundef %2, ptr nocapture noundef readonly %3, ...) local_unnamed_addr #0 {
  %5 = alloca [8704 x i8], align 16
  %6 = alloca [8704 x i8], align 16
  %7 = alloca [1 x %struct.__va_list_tag], align 16
  call void @llvm.va_start.p0(ptr nonnull %7)
  call void @llvm.lifetime.start.p0(i64 8704, ptr nonnull %5)
  call void @llvm.lifetime.start.p0(i64 8704, ptr nonnull %6)
  %8 = call i32 @vsnprintf(ptr noundef nonnull %5, i64 noundef 8704, ptr noundef readonly %3, ptr noundef nonnull %7) #9
  %9 = getelementptr inbounds i8, ptr %5, i64 8703
  store i8 0, ptr %9, align 1
  %10 = call i64 @strlen(ptr noundef nonnull dereferenceable(1) %5) #10
  %11 = trunc i64 %10 to i32
  %12 = call i32 @utf8ToPlatform(ptr noundef nonnull %5, i32 noundef %11, ptr noundef nonnull %6, i32 noundef 8704) #9
  %13 = call i32 (ptr, ptr, ...) @fprintf(ptr noundef %0, ptr noundef nonnull @.str.166, ptr noundef %1, ptr noundef nonnull %6, ptr noundef %2) #9
  call void @llvm.lifetime.end.p0(i64 8704, ptr nonnull %5)
  call void @llvm.lifetime.end.p0(i64 8704, ptr nonnull %6)
  call void @llvm.va_end.p0(ptr nonnull %7)
  ret void
}